(lp1
S'http://www.miltonmeasure.org/site/new-in-room-visitation-policy-unnerves-student-body/'
p2
aS'http://www.miltonmeasure.org/site/kavanaughs-confirmation-galvanizes-the-metoo-movement/'
p3
aS'http://www.miltonmeasure.org/site/civic-duty/'
p4
aS'http://www.miltonmeasure.org/site/just-another-scandal-a-peek-into-trumps-fraudulent-past/'
p5
aS'http://www.miltonmeasure.org/site/12-scientists-and-economists-receive-nobel-prize/'
p6
aS'http://www.miltonmeasure.org/site/un-predicts-the-point-of-no-return-for-climate-change/'
p7
aS'http://www.miltonmeasure.org/site/e-waste-the-global-cost-of-discarding-your-digital-device/'
p8
aS'http://www.miltonmeasure.org/site/ex-police-officer-charged-with-the-murder-of-laquan-mcdonald/'
p9
aS'http://www.miltonmeasure.org/site/the-future-of-the-volleyball-program-at-milton/'
p10
aS'http://www.miltonmeasure.org/site/nurmagomedov-vs-mcgregor-more-than-an-ordinary-ufc-match/'
p11
aS'http://www.miltonmeasure.org/site/milton-footballs-promising-start/'
p12
aS'http://www.miltonmeasure.org/site/south-park/'
p13
aS'http://www.miltonmeasure.org/site/tha-carter-v-and-drip-harder-album-reviews/'
p14
aS'http://www.miltonmeasure.org/site/chicago-rapper-gives-back-to-beleaguered-community/'
p15
aS'http://www.miltonmeasure.org/site/awkwafina-becomes-snl-host/'
p16
aS'http://www.miltonmeasure.org/site/how-milton-can-help-shape-policies-for-mental-health-privacy/'
p17
aS'http://www.miltonmeasure.org/site/massachusetts-increasingly-heartless-attitude-towards-bikers/'
p18
aS'http://www.miltonmeasure.org/site/dear-boarding-administrators/'
p19
aS'http://www.miltonmeasure.org/site/stem-shouldnt-overshadow-humanities/'
p20
aS'http://www.miltonmeasure.org/site/upperclassman-of-the-month-julia-johnson/'
p21
aS'http://www.miltonmeasure.org/site/underclassman-of-the-month-carlos-alvarado/'
p22
aS'http://www.miltonmeasure.org/site/the-measures-tips-for-freshmen/'
p23
aS'http://www.miltonmeasure.org/site/edelman-enjoying-his-extended-offseason-visits-milton/'
p24
aS'http://www.miltonmeasure.org/site/girls-soccers-path-to-success/'
p25
aS'http://www.miltonmeasure.org/site/patriots-exhibit-rocky-start-to-the-2018-2019-season/'
p26
aS'http://www.miltonmeasure.org/site/boys-soccers-promising-start-to-the-season/'
p27
aS'http://www.miltonmeasure.org/site/serena-williams-and-the-umpire-controversy/'
p28
aS'http://www.miltonmeasure.org/site/the-top-hip-hop-releases-of-this-past-summer/'
p29
aS'http://www.miltonmeasure.org/site/legend-mac-miller-found-dead-due-to-overdose/'
p30
aS'http://www.miltonmeasure.org/site/the-2018-emmy-awards-recap/'
p31
aS'http://www.miltonmeasure.org/site/pixars-bao-a-movie-review/'
p32
aS'http://www.miltonmeasure.org/site/in-room-visitation-policy-ensures-safety-and-inclusivity/'
p33
aS'http://www.miltonmeasure.org/site/the-unhealthy-burdens-of-cuffing-season/'
p34
aS'http://www.miltonmeasure.org/site/believe-in-something-even-when-you-sacrifice-nothing/'
p35
aS'http://www.miltonmeasure.org/site/gas-explosions-in-merrimack-valley-impact-thousands/'
p36
aS'http://www.miltonmeasure.org/site/anonymous-nyt-op-ed-vilifies-trump/'
p37
aS'http://www.miltonmeasure.org/site/new-catering-service-receives-positive-feedback-from-students/'
p38
aS'http://www.miltonmeasure.org/site/a-look-into-ice-detention-centers-the-abject-truth/'
p39
aS'http://www.miltonmeasure.org/site/politicians-vie-for-supremacy-in-the-2018-midterm-elections/'
p40
aS'http://www.miltonmeasure.org/site/hurricane-florence-rages-along-the-east-coast/'
p41
aS'http://www.miltonmeasure.org/site/the-plurality-of-things/'
p42
aS'http://www.miltonmeasure.org/site/fda-cracks-down-on-e-cigarette-companies-including-juul/'
p43
aS'http://www.miltonmeasure.org/site/kavanaugh-nomination-slammed-with-sexual-assault-allegations/'
p44
aS'http://www.miltonmeasure.org/site/milton-track-shines-at-new-englands-tournament/'
p45
aS'http://www.miltonmeasure.org/site/milton-teams-falter-in-nobles-day-clash/'
p46
aS'http://www.miltonmeasure.org/site/nba-finals-roll-on/'
p47
aS'http://www.miltonmeasure.org/site/just-a-t-stop-away-the-boston-calling-experience/'
p48
aS'http://www.miltonmeasure.org/site/solo-a-star-wars-story-movie-review/'
p49
aS'http://www.miltonmeasure.org/site/kanyes-ye-the-perfect-balance-between-crazy-and-soulful/'
p50
aS'http://www.miltonmeasure.org/site/historic-meeting-between-north-and-south-korea/'
p51
aS'http://www.miltonmeasure.org/site/class-of-2018-matriculations/'
p52
aS'http://www.miltonmeasure.org/site/from-the-archives-praise-for-mas-valedictorian-elections/'
p53
aS'http://www.miltonmeasure.org/site/isl-awards/'
p54
aS'http://www.miltonmeasure.org/site/real-madrid-clinches-champions-league-title/'
p55
aS'http://www.miltonmeasure.org/site/nhl-playoffs-recap-and-highlights/'
p56
aS'http://www.miltonmeasure.org/site/2018-2019-patriots-season-preview/'
p57
aS'http://www.miltonmeasure.org/site/2018-world-cup-preview/'
p58
aS'http://www.miltonmeasure.org/site/milton-athletes-shine-at-m-club-awards/'
p59
aS'http://www.miltonmeasure.org/site/13-reasons-why-an-inaccurate-portrayal-of-real-issues/'
p60
aS'http://www.miltonmeasure.org/site/oladipos-release-the-rebirth/'
p61
aS'http://www.miltonmeasure.org/site/billboard-awards-stay-political-progressive-and-relevant/'
p62
aS'http://www.miltonmeasure.org/site/shrek-brings-laughter-to-king-theater/'
p63
aS'http://www.miltonmeasure.org/site/the-legacy-factor-in-college-admissions/'
p64
aS'http://www.miltonmeasure.org/site/hoping-for-the-international-spread-of-the-metoo-movement/'
p65
aS'http://www.miltonmeasure.org/site/miltons-sga-a-flawed-system/'
p66
aS'http://www.miltonmeasure.org/site/hookup-culture-the-line-between-safety-and-helicoptering/'
p67
aS'http://www.miltonmeasure.org/site/final-assessments-pros-and-cons-to-different-approaches/'
p68
aS'http://www.miltonmeasure.org/site/finding-relaxation-in-summer/'
p69
aS'http://www.miltonmeasure.org/site/ebola-returns-to-parts-of-africa/'
p70
aS'http://www.miltonmeasure.org/site/harvey-weinstein-indicted-again-for-rape/'
p71
aS'http://www.miltonmeasure.org/site/gun-violence-strikes-at-santa-fe-high-school/'
p72
aS'http://www.miltonmeasure.org/site/morgan-freeman-accused-of-sexual-harassment/'
p73
aS'http://www.miltonmeasure.org/site/irelands-abortion-referendum/'
p74
aS'http://www.miltonmeasure.org/site/retiring-ms-grant/'
p75
aS'http://www.miltonmeasure.org/site/departing-teacher-ms-simon/'
p76
aS'http://www.miltonmeasure.org/site/retiring-dr-eyster/'
p77
aS'http://www.miltonmeasure.org/site/departing-faculty-mr-bailey/'
p78
aS'http://www.miltonmeasure.org/site/departing-teacher-ms-schneider/'
p79
aS'http://www.miltonmeasure.org/site/departing-teacher-mr-wood/'
p80
aS'http://www.miltonmeasure.org/site/farewell-class-of-2018/'
p81
aS'http://www.miltonmeasure.org/site/todd-blands-class-of-2018-reflections/'
p82
aS'http://www.miltonmeasure.org/site/cum-laude-society-welcomes-more-academic-standouts/'
p83
aS'http://www.miltonmeasure.org/site/jack-sloane-and-edowaye-idahor-serve-as-valedictorian-speakers/'
p84
aS'http://www.miltonmeasure.org/site/bisbee/'
p85
aS'http://www.miltonmeasure.org/site/milton-speech-team-performs-at-nationals/'
p86
aS'http://www.miltonmeasure.org/site/comedy-writer-c-j-hunt-03-excites-students-at-graduation/'
p87
aS'http://www.miltonmeasure.org/site/greetings-from-the-cxxiv-editorial-board/'
p88
aS'http://www.miltonmeasure.org/site/meet-the-milton-measure-cxxiv-editorial-board/'
p89
aS'http://www.miltonmeasure.org/site/overheard-at-the-academy/'
p90
aS'http://www.miltonmeasure.org/site/review-on-avengers-infinity-war-spoiler-free/'
p91
aS'http://www.miltonmeasure.org/site/turf-field-coming-soon-to-milton-academy/'
p92
aS'http://www.miltonmeasure.org/site/nfl-draft-full-of-surprises-and-controversies/'
p93
aS'http://www.miltonmeasure.org/site/an-update-miltons-varsity-tennis-teams-dominate/'
p94
aS'http://www.miltonmeasure.org/site/milton-sailing-shines-at-the-national-stage/'
p95
aS'http://www.miltonmeasure.org/site/nba-playoffs-roll-on-to-conference-finals/'
p96
aS'http://www.miltonmeasure.org/site/junot-diaz-faces-sexual-assault-allegations/'
p97
aS'http://www.miltonmeasure.org/site/childish-gambino-tackles-gun-violence-in-this-is-america/'
p98
aS'http://www.miltonmeasure.org/site/centerfold-may-21-2018-complicated-questions-measure-up/'
p99
aS'http://www.miltonmeasure.org/site/beerbongs-bentleys-post-malones-varying-musical-content/'
p100
aS'http://www.miltonmeasure.org/site/the-problems-with-toures-keynote-address/'
p101
aS'http://www.miltonmeasure.org/site/milton-speakers-an-echo-chamber-in-disguise/'
p102
aS'http://www.miltonmeasure.org/site/the-drawbacks-of-abandoning-the-iran-nuclear-deal/'
p103
aS'http://www.miltonmeasure.org/site/rudy-giuliani-slips-information-on-stormy-daniels-controversy/'
p104
aS'http://www.miltonmeasure.org/site/north-and-south-korea-meet-to-agree-on-denuclearization/'
p105
aS'http://www.miltonmeasure.org/site/puerto-rico-experiences-extended-power-outages/'
p106
aS'http://www.miltonmeasure.org/site/kilauea-volcano-eruption-devastates-hawaiis-big-island/'
p107
aS'http://www.miltonmeasure.org/site/new-leaders-day-boarding-monitors/'
p108
aS'http://www.miltonmeasure.org/site/crazy-rich-asians/'
p109
aS'http://www.miltonmeasure.org/site/kanyes-words/'
p110
aS'http://www.miltonmeasure.org/site/toure-shocks-student-body-in-keynote/'
p111
aS'http://www.miltonmeasure.org/site/about/'
p112
aS'http://www.miltonmeasure.org/site/special-issues/'
p113
aS'http://www.miltonmeasure.org/site/in-print/'
p114
aS'http://www.miltonmeasure.org/site/archives/'
p115
aS'http://www.miltonmeasure.org/site/measure-staff/'
p116
aS'http://www.miltonmeasure.org/site/looking-back/'
p117
aS'http://www.miltonmeasure.org/site/goodbye-from-cxxiii/'
p118
aS'http://www.miltonmeasure.org/site/students-support-environmentalism-at-issc-conference/'
p119
aS'http://www.miltonmeasure.org/site/us-and-north-korea-to-hold-nuclear-talks-in-beijing/'
p120
aS'http://www.miltonmeasure.org/site/us-presses-pakistan-afghanistan-on-militants/'
p121
aS'http://www.miltonmeasure.org/site/jordan-hattar-opens-minds/'
p122
aS'http://www.miltonmeasure.org/site/whats-behind-boycott-starbucks-racism-and-civil-activism/'
p123
aS'http://www.miltonmeasure.org/site/successful-giving-day/'
p124
aS'http://www.miltonmeasure.org/site/why-school-should-start-later-in-the-day/'
p125
aS'http://www.miltonmeasure.org/site/does-high-school-prepare-us-for-the-real-world/'
p126
aS'http://www.miltonmeasure.org/site/treading-the-line-between-free-speech-and-hurtful-opinions/'
p127
aS'http://www.miltonmeasure.org/site/why-the-starbucks-controversy-matters/'
p128
aS'http://www.miltonmeasure.org/site/students-as-donors-in-the-giving-day-campaign/'
p129
aS'http://www.miltonmeasure.org/site/the-joys-and-stresses-of-boat-dance/'
p130
aS'http://www.miltonmeasure.org/site/netflix-and-cannes-film-festival-sever-ties/'
p131
aS'http://www.miltonmeasure.org/site/immense-success-at-coachella-2018/'
p132
aS'http://www.miltonmeasure.org/site/cardi-b-breaks-barriers-with-new-album-invasion-of-privacy/'
p133
aS'http://www.miltonmeasure.org/site/milton-and-college-teams-wow-at-step-showcase/'
p134
aS'http://www.miltonmeasure.org/site/beychela-why-beyonce-was-coachellas-best-performance/'
p135
aS'http://www.miltonmeasure.org/site/a-recap-of-the-2018-masters-tigers-return/'
p136
aS'http://www.miltonmeasure.org/site/celtics-advance-in-post-season/'
p137
aS'http://www.miltonmeasure.org/site/predictions-for-the-red-sox-yankees-rivalry/'
p138
aS'http://www.miltonmeasure.org/site/leading-to-the-stanley-cup-nhl-playoff-update/'
p139
aS'http://www.miltonmeasure.org/site/from-the-archives-boat-dance-grievances-why-i-hate-my-class/'
p140
aS'http://www.miltonmeasure.org/site/this-year-in-review/'
p141
aS'http://www.miltonmeasure.org/site/milton-academy-bucket-list-for-seniors/'
p142
aS'http://www.miltonmeasure.org/site/editorial-privacy/'
p143
aS'http://www.miltonmeasure.org/site/kailees-kolumn-and-gregs-grumblings/'
p144
aS'http://www.miltonmeasure.org/site/centerfold-may-13-2018-freshmansenior-of-the-month-patriots-day-earth-day/'
p145
aS'http://www.miltonmeasure.org/site/a-capella-night-brings-a-blend-of-styles-and-ages/'
p146
aS'http://www.miltonmeasure.org/site/police-brutality-in-2018/'
p147
aS'http://www.miltonmeasure.org/site/villanova-rolls-through-mens-ncaa-tournament/'
p148
aS'http://www.miltonmeasure.org/site/from-the-archives/'
p149
aS'http://www.miltonmeasure.org/site/best-ideas-never-proposed-by-head-monitors/'
p150
aS'http://www.miltonmeasure.org/site/thrilling-shot-ignites-notre-dame-to-womens-championship/'
p151
aS'http://www.miltonmeasure.org/site/a-message-from-your-new-head-monitors-mikey-and-asia/'
p152
aS'http://www.miltonmeasure.org/site/xxxtentaction-drops-following-attempts-to-better-image/'
p153
aS'http://www.miltonmeasure.org/site/from-westboro-picketer-to-social-activist-megan-phelps-roper/'
p154
aS'http://www.miltonmeasure.org/site/spring-sports-start-following-successful-spring-break-trips/'
p155
aS'http://www.miltonmeasure.org/site/an-overly-competitive-milton-seek-balance/'
p156
aS'http://www.miltonmeasure.org/site/virgil-abloh-becomes-first-black-lead-at-louis-vuitton/'
p157
aS'http://www.miltonmeasure.org/site/gabriel-gomez-speaks-politics/'
p158
aS'http://www.miltonmeasure.org/site/miltons-admissions-process/'
p159
aS'http://www.miltonmeasure.org/site/the-david-hogg-paradox-why-hate-doesnt-make-effective-policy/'
p160
aS'http://www.miltonmeasure.org/site/the-weeknds-new-album-my-dear-melancholy/'
p161
aS'http://www.miltonmeasure.org/site/dariyas-take-the-downfalls-of-cuffing/'
p162
aS'http://www.miltonmeasure.org/site/pandamonium-at-facebook-zuckerbergs-undoing/'
p163
aS'http://www.miltonmeasure.org/site/earth-month-at-milton/'
p164
aS'http://www.miltonmeasure.org/site/steve-sando-speaks-about-c-elegans/'
p165
aS'http://www.miltonmeasure.org/site/sophomores-go-on-annual-class-2-retreat/'
p166
aS'http://www.miltonmeasure.org/site/rising-concerns-about-autonomous-vehicles/'
p167
aS'http://www.miltonmeasure.org/site/milton-academy-plans-for-new-campus-renovations/'
p168
aS'http://www.miltonmeasure.org/site/editorial-nuance-over-simplicity/'
p169
aS'http://www.miltonmeasure.org/site/lets-get-it-online/'
p170
aS'http://www.miltonmeasure.org/site/aggression-digression/'
p171
aS'http://www.miltonmeasure.org/site/delivering-the-scoop-on-ordering-at-milton/'
p172
aS'http://www.miltonmeasure.org/site/distant-worlds-feet-apart/'
p173
aS'http://www.miltonmeasure.org/site/driven-into-unfamiliar-territory-the-ethics-of-ai/'
p174
aS'http://www.miltonmeasure.org/site/underground-and-groundbreaking-bostons-urban-farming/'
p175
aS'http://www.miltonmeasure.org/site/cruising/'
p176
aS'http://www.miltonmeasure.org/site/what-are-we-doing-when-we-cut-our-hair/'
p177
aS'http://www.miltonmeasure.org/site/why-you-should-take-the-craft-of-non-fiction/'
p178
aS'http://www.miltonmeasure.org/site/spring-break-trips/'
p179
aS'http://www.miltonmeasure.org/site/onyx-speaker-rahsaan-hall-links-statistics-to-mass-incarceration/'
p180
aS'http://www.miltonmeasure.org/site/top-things-to-do-during-the-blackout/'
p181
aS'http://www.miltonmeasure.org/site/editorial-five-years-later-gun-control/'
p182
aS'http://www.miltonmeasure.org/site/asian-society-hosts-lunar-new-year/'
p183
aS'http://www.miltonmeasure.org/site/milton-hosts-student-directed-one-act-plays/'
p184
aS'http://www.miltonmeasure.org/site/centerfold-march-6-2018-freshmansenior-of-the-month-spring-break-measure-up/'
p185
aS'http://www.miltonmeasure.org/site/nba-season-update-eastern-and-western-contenders/'
p186
aS'http://www.miltonmeasure.org/site/2018-oscars-lack-diversity/'
p187
aS'http://www.miltonmeasure.org/site/parkland-shooting/'
p188
aS'http://www.miltonmeasure.org/site/what-the-year-of-the-dog-has-in-store-for-you/'
p189
aS'http://www.miltonmeasure.org/site/black-panther-movie-has-5th-biggest-opening-weekend-in-history/'
p190
aS'http://www.miltonmeasure.org/site/florida-school-shooting-ignorance-is-not-a-solution/'
p191
aS'http://www.miltonmeasure.org/site/kailees-kolumn/'
p192
aS'http://www.miltonmeasure.org/site/dorm-dodgeball-promotes-boarder-bonding/'
p193
aS'http://www.miltonmeasure.org/site/the-flawed-criminal-justice-system-mass-incarceration/'
p194
aS'http://www.miltonmeasure.org/site/the-incredibles-returns-after-fourteen-year-break/'
p195
aS'http://www.miltonmeasure.org/site/mueller-continues-indictments-over-russian-investigation/'
p196
aS'http://www.miltonmeasure.org/site/community-engagement-organizes-annual-blood-drive/'
p197
aS'http://www.miltonmeasure.org/site/drakes-gods-plan-video-breaks-records/'
p198
aS'http://www.miltonmeasure.org/site/mlb-teams-make-moves-during-offseason/'
p199
aS'http://www.miltonmeasure.org/site/paul-yoon-visits-milton-as-2018-bingham-reader/'
p200
aS'http://www.miltonmeasure.org/site/black-panther-the-album-impresses-many/'
p201
aS'http://www.miltonmeasure.org/site/pakistan-bans-valentines-day/'
p202
aS'http://www.miltonmeasure.org/site/milton-ski-returns-victorious-from-nepsac-competition/'
p203
aS'http://www.miltonmeasure.org/site/laura-tierney-speaks-about-social-media/'
p204
aS'http://www.miltonmeasure.org/site/nba-all-star-weekend-entertains-fans/'
p205
aS'http://www.miltonmeasure.org/site/milton-swim-teams-compete-at-easterns/'
p206
aS'http://www.miltonmeasure.org/site/rejected-senior-superlatives/'
p207
aS'http://www.miltonmeasure.org/site/nassar-sentenced-for-sexual-assault/'
p208
aS'http://www.miltonmeasure.org/site/eagles-upset-patriots-in-super-bowl/'
p209
aS'http://www.miltonmeasure.org/site/editorial-overcoming-fear-of-conversation/'
p210
aS'http://www.miltonmeasure.org/site/milton-senior-jazz-combo-wins-third-at-berklee-festival/'
p211
aS'http://www.miltonmeasure.org/site/spirits-rise-for-winter-dance-concert/'
p212
aS'http://www.miltonmeasure.org/site/class-at-milton/'
p213
aS'http://www.miltonmeasure.org/site/milton-squash-shines-at-nationals/'
p214
aS'http://www.miltonmeasure.org/site/the-dreaded-dc-how-does-our-disciplinary-system-work/'
p215
aS'http://www.miltonmeasure.org/site/timberlakes-man-of-the-woods-misses-the-mark/'
p216
aS'http://www.miltonmeasure.org/site/kailees-kolumn-a-reflection-on-community-day/'
p217
aS'http://www.miltonmeasure.org/site/glasgow-group-revisits-to-continue-conversation/'
p218
aS'http://www.miltonmeasure.org/site/the-annual-gratwick-concert-featuring-sasha-cooke/'
p219
aS'http://www.miltonmeasure.org/site/milton-playoffs/'
p220
aS'http://www.miltonmeasure.org/site/roger-federer-wins-his-20th-grand-slam-title/'
p221
aS'http://www.miltonmeasure.org/site/tom-brady-remains-the-g-o-a-t-despite-superbowl-lii/'
p222
aS'http://www.miltonmeasure.org/site/dariyas-take-high-school-relationships/'
p223
aS'http://www.miltonmeasure.org/site/seniors-raise-over-14000-through-senior-showcase/'
p224
aS'http://www.miltonmeasure.org/site/winter-olympics-start-in-pyeongchang-south-korea/'
p225
aS'http://www.miltonmeasure.org/site/amtrak-faces-safety-issues-and-road-blocks/'
p226
aS'http://www.miltonmeasure.org/site/super-bowl-commercials-hits-and-misses/'
p227
aS'http://www.miltonmeasure.org/site/milton-students-participate-in-the-american-math-contest/'
p228
aS'http://www.miltonmeasure.org/site/larger-tax-cut-benefits-for-large-companies/'
p229
aS'http://www.miltonmeasure.org/site/why-community-at-milton-service-is-a-choice/'
p230
aS'http://www.miltonmeasure.org/site/trump-delivers-first-state-of-the-union-address/'
p231
aS'http://www.miltonmeasure.org/site/one-year-later-the-gops-main-issue/'
p232
aS'http://www.miltonmeasure.org/site/an-unusual-rise-to-fame-rich-brians-story/'
p233
aS'http://www.miltonmeasure.org/site/3048-2/'
p234
aS'http://www.miltonmeasure.org/site/centerfold-january-19-2018-freshman-senior-of-the-month-exams/'
p235
aS'http://www.miltonmeasure.org/site/10-reasons-you-failed-your-exams/'
p236
aS'http://www.miltonmeasure.org/site/mlk-assembly-dr-kedra-ishop/'
p237
aS'http://www.miltonmeasure.org/site/editorial-productive-learning-or-sit-down-exams/'
p238
aS'http://www.miltonmeasure.org/site/eminems-revival-underwhelms-its-listeners/'
p239
aS'http://www.miltonmeasure.org/site/nfl-update-2017-2018-conference-championships/'
p240
aS'http://www.miltonmeasure.org/site/beatnik-at-milton-academy-another-successful-night/'
p241
aS'http://www.miltonmeasure.org/site/irene-li-07-speaks-about-sustainability/'
p242
aS'http://www.miltonmeasure.org/site/exams-at-milton-academy-a-students-perspective/'
p243
aS'http://www.miltonmeasure.org/site/miltons-basketball-and-hockey-teams-winter-tournaments/'
p244
aS'http://www.miltonmeasure.org/site/kailees-kolumn-2/'
p245
aS'http://www.miltonmeasure.org/site/net-neutrality-the-end-of-american-democracy/'
p246
aS'http://www.miltonmeasure.org/site/sleeplessness-amongst-milton-students/'
p247
aS'http://www.miltonmeasure.org/site/jimmy-garoppolo-moves-on-to-join-the-san-francisco-49ers/'
p248
aS'http://www.miltonmeasure.org/site/semester-programs/'
p249
aS'http://www.miltonmeasure.org/site/news-from-the-75th-golden-globes/'
p250
aS'http://www.miltonmeasure.org/site/lack-of-aid-to-pakistan/'
p251
aS'http://www.miltonmeasure.org/site/snow-days-behind-the-scenes/'
p252
aS'http://www.miltonmeasure.org/site/trump-lifts-ban-on-coastal-water-oil-and-gas-drilling/'
p253
aS'http://www.miltonmeasure.org/site/why-the-logan-paul-controversy-matters/'
p254
aS'http://www.miltonmeasure.org/site/bitcoin-the-controversial-rise-of-a-new-cryptocurrency/'
p255
aS'http://www.miltonmeasure.org/site/spectre-and-meltdown-bugs-affect-almost-all-computers/'
p256
aS'http://www.miltonmeasure.org/site/gov-ball-boston-calling-coachella-upcoming-music-festivals/'
p257
aS'http://www.miltonmeasure.org/site/apple-slows-iphones/'
p258
aS'http://www.miltonmeasure.org/site/2018-drugs-and-hip-hop-in-the-music-industry/'
p259
aS'http://www.miltonmeasure.org/site/north-korea-and-south-korea-could-reconciliation-be-coming/'
p260
aS'http://www.miltonmeasure.org/site/spirit-week-for-rival-games/'
p261
aS'http://www.miltonmeasure.org/site/editorial-examining-the-dc-process/'
p262
aS'http://www.miltonmeasure.org/site/centerfold-november-9-2017-freshman-senior-of-the-month-measure-up/'
p263
aS'http://www.miltonmeasure.org/site/what-would-have-made-the-pep-rally-better/'
p264
aS'http://www.miltonmeasure.org/site/promising-outlook-for-the-2017-2018-boston-bruins-team/'
p265
aS'http://www.miltonmeasure.org/site/astronaut-mike-massimino-visits-milton/'
p266
aS'http://www.miltonmeasure.org/site/stranger-things-returns-to-netflix-with-second-season/'
p267
aS'http://www.miltonmeasure.org/site/speaking-out-against-sexual-assault/'
p268
aS'http://www.miltonmeasure.org/site/halloween-controversy/'
p269
aS'http://www.miltonmeasure.org/site/new-england-patriots-get-back-to-work-after-bye-week/'
p270
aS'http://www.miltonmeasure.org/site/thoughts-on-veterans-day/'
p271
aS'http://www.miltonmeasure.org/site/removed-war-memorials/'
p272
aS'http://www.miltonmeasure.org/site/the-sophomore-slump-tests-our-time-management/'
p273
aS'http://www.miltonmeasure.org/site/president-trump-attempts-to-address-the-opioid-crisis/'
p274
aS'http://www.miltonmeasure.org/site/safety-at-milton-academy-reflects-changes-in-our-world/'
p275
aS'http://www.miltonmeasure.org/site/embattled-rapper-calls-it-quits-amidst-controversy/'
p276
aS'http://www.miltonmeasure.org/site/assessing-miltons-grading-system/'
p277
aS'http://www.miltonmeasure.org/site/russia-probe-results-in-formal-indictments/'
p278
aS'http://www.miltonmeasure.org/site/thor-ragnarok-misses-the-chance-to-smash-at-the-box-office/'
p279
aS'http://www.miltonmeasure.org/site/cross-country-athletes-soar-into-isls/'
p280
aS'http://www.miltonmeasure.org/site/astros-baseball-team-wins-first-world-series-for-houston/'
p281
aS'http://www.miltonmeasure.org/site/incorporating-diversity-into-the-english-curriculum/'
p282
aS'http://www.miltonmeasure.org/site/celtics-start-strong-despite-devastating-gordon-hayward-injury/'
p283
aS'http://www.miltonmeasure.org/site/camp-flog-gnaw-festival-in-la-celebrates-inclusivity/'
p284
aS'http://www.miltonmeasure.org/site/football-team-rounds-off-a-successful-season/'
p285
aS'http://www.miltonmeasure.org/site/multiculturalism-office-shares-stories/'
p286
aS'http://www.miltonmeasure.org/site/miltons-visual-arts-assembly-features-howard-lerner/'
p287
aS'http://www.miltonmeasure.org/site/kailees-kolumn-3/'
p288
aS'http://www.miltonmeasure.org/site/editorial-confronting-the-milton-bubble/'
p289
aS'http://www.miltonmeasure.org/site/rodney-glasgow-educates-community-about-diversity/'
p290
aS'http://www.miltonmeasure.org/site/hurricane-devastated-puerto-rico-seeks-relief/'
p291
aS'http://www.miltonmeasure.org/site/a-seniors-take-how-i-take-advantage-of-parents-day/'
p292
aS'http://www.miltonmeasure.org/site/a-seniors-take-how-i-take-advantage-of-parents-day-2/'
p293
aS'http://www.miltonmeasure.org/site/elon-musk-envisions-a-future-for-interplanetary-travel/'
p294
aS'http://www.miltonmeasure.org/site/causes-solutions-high-school-stress/'
p295
aS'http://www.miltonmeasure.org/site/kailees-kolumn-2-2/'
p296
aS'http://www.miltonmeasure.org/site/tragedy-in-las-vegas-incite-calls-for-action-2/'
p297
aS'http://www.miltonmeasure.org/site/tragedy-in-las-vegas-incite-calls-for-action/'
p298
aS'http://www.miltonmeasure.org/site/saudi-arabia-allows-women-to-drive/'
p299
aS'http://www.miltonmeasure.org/site/editorial-spreading-positive-change/'
p300
aS'http://www.miltonmeasure.org/site/qa-with-danny-little-magus-mabus-editor/'
p301
aS'http://www.miltonmeasure.org/site/editorial-the-leaders-of-milton/'
p302
aS'http://www.miltonmeasure.org/site/the-class-of-2017-a-reflection-by-todd-bland/'
p303
aS'http://www.miltonmeasure.org/site/no-i-didnt-sit-in-and-no-im-not-a-racist/'
p304
aS'http://www.miltonmeasure.org/site/editorial-lets-listen/'
p305
aS'http://www.miltonmeasure.org/site/class-reps-new-classes-new-faces/'
p306
aS'http://www.miltonmeasure.org/site/editorial-letter-from-your-new-board/'
p307
aS'http://www.miltonmeasure.org/site/trump-unleashes-many-executive-orders-in-the-first-two-weeks/'
p308
aS'http://www.miltonmeasure.org/site/donald-trump-wins-presidency-after-grueling-election-night/'
p309
aS'http://www.miltonmeasure.org/site/newspaper-endorsements-skew-towards-clinton-for-the-election/'
p310
aS'http://www.miltonmeasure.org/site/final-face-off-for-trump-and-clinton/'
p311
aS'http://www.miltonmeasure.org/site/latest-primaries-leave-trump-and-clinton-as-likely-nominees/'
p312
aS'http://www.miltonmeasure.org/site/senior-nick-mehlman-runs-marathon-in-3-hours-18-minutes/'
p313
aS'http://www.miltonmeasure.org/site/milton-students-go-global-for-spring-break/'
p314
aS'http://www.miltonmeasure.org/site/clinton-and-trump-score-big-on-super-tuesday/'
p315
aS'http://www.miltonmeasure.org/site/faculty-spotlights-sabbaticals-larry-fitzpatrick-hugo-caraballo/'
p316
aS'http://www.miltonmeasure.org/site/donald-trump-blows-iowa-caucuses/'
p317
aS'http://www.miltonmeasure.org/site/theme-features/'
p318
aS'http://www.miltonmeasure.org/site/democrat-candidate-profiles/'
p319
aS'http://www.miltonmeasure.org/site/blue-hills-deer-hunt/'
p320
aS'http://www.miltonmeasure.org/site/russian-airliner-downed-over-egypts-sinai-peninsula/'
p321
aS'http://www.miltonmeasure.org/site/bernie-sanders-puts-status-quo-on-the-back-berner/'
p322
aS'http://www.miltonmeasure.org/site/submit-your-news/'
p323
aS'http://www.miltonmeasure.org/site/contact/'
p324
aS'http://www.miltonmeasure.org/site/shortcodes/'
p325
aS'http://www.miltonmeasure.org/site/full-width/'
p326
a.